; ModuleID = '57/2237.c'
source_filename = "57/2237.c"
target datalayout = "e-m:e-p270:32:32-p271:32:32-p272:64:64-i64:64-f80:128-n8:16:32:64-S128"
target triple = "x86_64-pc-linux-gnu"

@.str = private unnamed_addr constant [3 x i8] c"%d\00", align 1
@.str.1 = private unnamed_addr constant [3 x i8] c"%s\00", align 1
@.str.2 = private unnamed_addr constant [4 x i8] c"%s\0A\00", align 1

; Function Attrs: noinline nounwind uwtable
define dso_local i32 @main() #0 {
  %1 = alloca i32, align 4
  %2 = alloca [100 x i8], align 16
  %3 = alloca i32, align 4
  %4 = alloca i32, align 4
  %5 = alloca i32, align 4
  store i32 0, i32* %1, align 4
  %6 = call i32 (i8*, ...) @__isoc99_scanf(i8* getelementptr inbounds ([3 x i8], [3 x i8]* @.str, i64 0, i64 0), i32* %4)
  store i32 1, i32* %5, align 4
  br label %7

7:                                                ; preds = %22, %0
  %8 = load i32, i32* %5, align 4
  %9 = load i32, i32* %4, align 4
  %10 = icmp sle i32 %8, %9
  br i1 %10, label %11, label %25

11:                                               ; preds = %7
  %12 = getelementptr inbounds [100 x i8], [100 x i8]* %2, i64 0, i64 0
  %13 = call i32 (i8*, ...) @__isoc99_scanf(i8* getelementptr inbounds ([3 x i8], [3 x i8]* @.str.1, i64 0, i64 0), i8* %12)
  %14 = getelementptr inbounds [100 x i8], [100 x i8]* %2, i64 0, i64 0
  %15 = call i64 @strlen(i8* %14) #3
  %16 = sub i64 %15, 1
  %17 = trunc i64 %16 to i32
  store i32 %17, i32* %3, align 4
  %18 = load i32, i32* %3, align 4
  %19 = getelementptr inbounds [100 x i8], [100 x i8]* %2, i64 0, i64 0
  call void @del(i32 %18, i8* %19)
  %20 = getelementptr inbounds [100 x i8], [100 x i8]* %2, i64 0, i64 0
  %21 = call i32 (i8*, ...) @printf(i8* getelementptr inbounds ([4 x i8], [4 x i8]* @.str.2, i64 0, i64 0), i8* %20)
  br label %22

22:                                               ; preds = %11
  %23 = load i32, i32* %5, align 4
  %24 = add nsw i32 %23, 1
  store i32 %24, i32* %5, align 4
  br label %7

25:                                               ; preds = %7
  %26 = load i32, i32* %1, align 4
  ret i32 %26
}

declare dso_local i32 @__isoc99_scanf(i8*, ...) #1

; Function Attrs: nounwind readonly
declare dso_local i64 @strlen(i8*) #2

; Function Attrs: noinline nounwind uwtable
define dso_local void @del(i32 %0, i8* %1) #0 {
  %3 = alloca i32, align 4
  %4 = alloca i8*, align 8
  store i32 %0, i32* %3, align 4
  store i8* %1, i8** %4, align 8
  %5 = load i8*, i8** %4, align 8
  %6 = load i32, i32* %3, align 4
  %7 = sext i32 %6 to i64
  %8 = getelementptr inbounds i8, i8* %5, i64 %7
  %9 = load i8, i8* %8, align 1
  %10 = sext i8 %9 to i32
  %11 = icmp eq i32 %10, 103
  br i1 %11, label %12, label %18

12:                                               ; preds = %2
  %13 = load i8*, i8** %4, align 8
  %14 = load i32, i32* %3, align 4
  %15 = sub nsw i32 %14, 2
  %16 = sext i32 %15 to i64
  %17 = getelementptr inbounds i8, i8* %13, i64 %16
  store i8 0, i8* %17, align 1
  br label %24

18:                                               ; preds = %2
  %19 = load i8*, i8** %4, align 8
  %20 = load i32, i32* %3, align 4
  %21 = sub nsw i32 %20, 1
  %22 = sext i32 %21 to i64
  %23 = getelementptr inbounds i8, i8* %19, i64 %22
  store i8 0, i8* %23, align 1
  br label %24

24:                                               ; preds = %18, %12
  ret void
}

declare dso_local i32 @printf(i8*, ...) #1


!llvm.module.flags = !{!0}
!llvm.ident = !{!1}

!0 = !{i32 1, !"wchar_size", i32 4}
!1 = !{!"clang version 10.0.0-4ubuntu1 "}
